; Function Attrs: mustprogress uwtable
define void @_ZNK10TimerGroup11DetailLinesB5cxx11Ev(ptr dead_on_unwind noalias writable sret(%"class.std::__cxx11::basic_string") align 8 %0, ptr nocapture noundef nonnull readonly align 8 dereferenceable(56) %1) local_unnamed_addr #3 align 2 personality ptr @__gxx_personality_v0 {
  %3 = alloca %"class.std::__cxx11::basic_stringstream", align 8
  %4 = alloca %"class.std::__cxx11::basic_string", align 8
  call void @_ZNSt7__cxx1118basic_stringstreamIcSt11char_traitsIcESaIcEEC1Ev(ptr noundef nonnull align 8 dereferenceable(128) %3)
  %5 = getelementptr inbounds nuw i8, ptr %1, i64 8
  %6 = load ptr, ptr %5, align 8
  %7 = load ptr, ptr %1, align 8
  %.not = icmp eq ptr %6, %7
  br i1 %.not, label %._crit_edge, label %.lr.ph

.lr.ph:                                           ; preds = %2
  %8 = getelementptr inbounds i8, ptr %3, i64 16
  br label %9

9:                                                ; preds = %.lr.ph, %23
  %10 = phi ptr [ %7, %.lr.ph ], [ %27, %23 ]
  %11 = phi i64 [ 0, %.lr.ph ], [ %25, %23 ]
  %.0710 = phi i32 [ 0, %.lr.ph ], [ %24, %23 ]
  %12 = getelementptr inbounds %class.Timer, ptr %10, i64 %11
  %13 = invoke noundef zeroext i1 @_ZNK5Timer4UsedEv(ptr noundef nonnull align 8 dereferenceable(72) %12)
          to label %14 unwind label %.loopexit

14:                                               ; preds = %9
  br i1 %13, label %15, label %23

15:                                               ; preds = %14
  %16 = load ptr, ptr %1, align 8
  %17 = getelementptr inbounds %class.Timer, ptr %16, i64 %11
  invoke void @_ZNK5Timer10DetailLineB5cxx11Ev(ptr dead_on_unwind nonnull writable sret(%"class.std::__cxx11::basic_string") align 8 %4, ptr noundef nonnull align 8 dereferenceable(72) %17)
          to label %18 unwind label %.loopexit

18:                                               ; preds = %15
  %19 = invoke noundef nonnull align 8 dereferenceable(8) ptr @_ZStlsIcSt11char_traitsIcESaIcEERSt13basic_ostreamIT_T0_ES7_RKNSt7__cxx1112basic_stringIS4_S5_T1_EE(ptr noundef nonnull align 8 dereferenceable(8) %8, ptr noundef nonnull align 8 dereferenceable(32) %4)
          to label %20 unwind label %21

20:                                               ; preds = %18
  call void @_ZNSt7__cxx1112basic_stringIcSt11char_traitsIcESaIcEED1Ev(ptr noundef nonnull align 8 dereferenceable(32) %4) #15
  br label %23

.loopexit:                                        ; preds = %9, %15
  %lpad.loopexit = landingpad { ptr, i32 }
          cleanup
  br label %34

.loopexit.split-lp:                               ; preds = %._crit_edge
  %lpad.loopexit.split-lp = landingpad { ptr, i32 }
          cleanup
  br label %34

21:                                               ; preds = %18
  %22 = landingpad { ptr, i32 }
          cleanup
  call void @_ZNSt7__cxx1112basic_stringIcSt11char_traitsIcESaIcEED1Ev(ptr noundef nonnull align 8 dereferenceable(32) %4) #15
  br label %34

23:                                               ; preds = %14, %20
  %24 = add i32 %.0710, 1
  %25 = zext i32 %24 to i64
  %26 = load ptr, ptr %5, align 8
  %27 = load ptr, ptr %1, align 8
  %28 = ptrtoint ptr %26 to i64
  %29 = ptrtoint ptr %27 to i64
  %30 = sub i64 %28, %29
  %31 = sdiv exact i64 %30, 72
  %32 = icmp ugt i64 %31, %25
  br i1 %32, label %9, label %._crit_edge, !llvm.loop !19

._crit_edge:                                      ; preds = %23, %2
  invoke void @_ZNKSt7__cxx1118basic_stringstreamIcSt11char_traitsIcESaIcEE3strEv(ptr dead_on_unwind writable sret(%"class.std::__cxx11::basic_string") align 8 %0, ptr noundef nonnull align 8 dereferenceable(128) %3)
          to label %33 unwind label %.loopexit.split-lp

33:                                               ; preds = %._crit_edge
  call void @_ZNSt7__cxx1118basic_stringstreamIcSt11char_traitsIcESaIcEED1Ev(ptr noundef nonnull align 8 dereferenceable(128) %3) #15
  ret void

34:                                               ; preds = %.loopexit, %.loopexit.split-lp, %21
  %.pn = phi { ptr, i32 } [ %22, %21 ], [ %lpad.loopexit, %.loopexit ], [ %lpad.loopexit.split-lp, %.loopexit.split-lp ]
  call void @_ZNSt7__cxx1118basic_stringstreamIcSt11char_traitsIcESaIcEED1Ev(ptr noundef nonnull align 8 dereferenceable(128) %3) #15
  resume { ptr, i32 } %.pn
}